; ModuleID = '57/172.c'
source_filename = "57/172.c"
target datalayout = "e-m:e-p270:32:32-p271:32:32-p272:64:64-i64:64-f80:128-n8:16:32:64-S128"
target triple = "x86_64-pc-linux-gnu"

@.str = private unnamed_addr constant [3 x i8] c"%d\00", align 1
@.str.1 = private unnamed_addr constant [3 x i8] c"%s\00", align 1
@.str.2 = private unnamed_addr constant [4 x i8] c"%s\0A\00", align 1

; Function Attrs: noinline nounwind uwtable
define dso_local void @main() #0 {
  %1 = alloca [51 x i8], align 16
  %2 = alloca [51 x [51 x i8]], align 16
  %3 = alloca i32, align 4
  %4 = alloca i32, align 4
  %5 = alloca i32, align 4
  %6 = alloca i32, align 4
  %7 = bitcast [51 x i8]* %1 to i8*
  call void @llvm.memset.p0i8.i64(i8* align 16 %7, i8 0, i64 51, i1 false)
  %8 = bitcast [51 x [51 x i8]]* %2 to i8*
  call void @llvm.memset.p0i8.i64(i8* align 16 %8, i8 0, i64 2601, i1 false)
  store i32 0, i32* %3, align 4
  store i32 0, i32* %4, align 4
  store i32 0, i32* %5, align 4
  store i32 0, i32* %6, align 4
  %9 = call i32 (i8*, ...) @__isoc99_scanf(i8* getelementptr inbounds ([3 x i8], [3 x i8]* @.str, i64 0, i64 0), i32* %3)
  store i32 0, i32* %4, align 4
  br label %10

10:                                               ; preds = %56, %0
  %11 = load i32, i32* %4, align 4
  %12 = load i32, i32* %3, align 4
  %13 = icmp slt i32 %11, %12
  br i1 %13, label %14, label %59

14:                                               ; preds = %10
  %15 = getelementptr inbounds [51 x i8], [51 x i8]* %1, i64 0, i64 0
  %16 = call i32 (i8*, ...) @__isoc99_scanf(i8* getelementptr inbounds ([3 x i8], [3 x i8]* @.str.1, i64 0, i64 0), i8* %15)
  %17 = getelementptr inbounds [51 x i8], [51 x i8]* %1, i64 0, i64 0
  %18 = call i64 @strlen(i8* %17) #5
  %19 = trunc i64 %18 to i32
  store i32 %19, i32* %5, align 4
  %20 = load i32, i32* %5, align 4
  %21 = sub nsw i32 %20, 1
  %22 = sext i32 %21 to i64
  %23 = getelementptr inbounds [51 x i8], [51 x i8]* %1, i64 0, i64 %22
  %24 = load i8, i8* %23, align 1
  %25 = sext i8 %24 to i32
  %26 = icmp eq i32 %25, 103
  br i1 %26, label %27, label %40

27:                                               ; preds = %14
  %28 = load i32, i32* %5, align 4
  %29 = sub nsw i32 %28, 2
  %30 = sext i32 %29 to i64
  %31 = getelementptr inbounds [51 x i8], [51 x i8]* %1, i64 0, i64 %30
  store i8 0, i8* %31, align 1
  %32 = load i32, i32* %5, align 4
  %33 = sub nsw i32 %32, 1
  %34 = sext i32 %33 to i64
  %35 = getelementptr inbounds [51 x i8], [51 x i8]* %1, i64 0, i64 %34
  store i8 0, i8* %35, align 1
  %36 = load i32, i32* %5, align 4
  %37 = sub nsw i32 %36, 3
  %38 = sext i32 %37 to i64
  %39 = getelementptr inbounds [51 x i8], [51 x i8]* %1, i64 0, i64 %38
  store i8 0, i8* %39, align 1
  br label %49

40:                                               ; preds = %14
  %41 = load i32, i32* %5, align 4
  %42 = sub nsw i32 %41, 2
  %43 = sext i32 %42 to i64
  %44 = getelementptr inbounds [51 x i8], [51 x i8]* %1, i64 0, i64 %43
  store i8 0, i8* %44, align 1
  %45 = load i32, i32* %5, align 4
  %46 = sub nsw i32 %45, 1
  %47 = sext i32 %46 to i64
  %48 = getelementptr inbounds [51 x i8], [51 x i8]* %1, i64 0, i64 %47
  store i8 0, i8* %48, align 1
  br label %49

49:                                               ; preds = %40, %27
  %50 = load i32, i32* %4, align 4
  %51 = sext i32 %50 to i64
  %52 = getelementptr inbounds [51 x [51 x i8]], [51 x [51 x i8]]* %2, i64 0, i64 %51
  %53 = getelementptr inbounds [51 x i8], [51 x i8]* %52, i64 0, i64 0
  %54 = getelementptr inbounds [51 x i8], [51 x i8]* %1, i64 0, i64 0
  %55 = call i8* @strcpy(i8* %53, i8* %54) #6
  br label %56

56:                                               ; preds = %49
  %57 = load i32, i32* %4, align 4
  %58 = add nsw i32 %57, 1
  store i32 %58, i32* %4, align 4
  br label %10

59:                                               ; preds = %10
  store i32 0, i32* %6, align 4
  br label %60

60:                                               ; preds = %70, %59
  %61 = load i32, i32* %6, align 4
  %62 = load i32, i32* %3, align 4
  %63 = icmp slt i32 %61, %62
  br i1 %63, label %64, label %73

64:                                               ; preds = %60
  %65 = load i32, i32* %6, align 4
  %66 = sext i32 %65 to i64
  %67 = getelementptr inbounds [51 x [51 x i8]], [51 x [51 x i8]]* %2, i64 0, i64 %66
  %68 = getelementptr inbounds [51 x i8], [51 x i8]* %67, i64 0, i64 0
  %69 = call i32 (i8*, ...) @printf(i8* getelementptr inbounds ([4 x i8], [4 x i8]* @.str.2, i64 0, i64 0), i8* %68)
  br label %70

70:                                               ; preds = %64
  %71 = load i32, i32* %6, align 4
  %72 = add nsw i32 %71, 1
  store i32 %72, i32* %6, align 4
  br label %60

73:                                               ; preds = %60
  ret void
}

; Function Attrs: argmemonly nounwind willreturn
declare void @llvm.memset.p0i8.i64(i8* nocapture writeonly, i8, i64, i1 immarg) #1

declare dso_local i32 @__isoc99_scanf(i8*, ...) #2

; Function Attrs: nounwind readonly
declare dso_local i64 @strlen(i8*) #3

; Function Attrs: nounwind
declare dso_local i8* @strcpy(i8*, i8*) #4

declare dso_local i32 @printf(i8*, ...) #2


!llvm.module.flags = !{!0}
!llvm.ident = !{!1}

!0 = !{i32 1, !"wchar_size", i32 4}
!1 = !{!"clang version 10.0.0-4ubuntu1 "}
