; ModuleID = 'source-C-CXX/56/172.c'
source_filename = "source-C-CXX/56/172.c"
target datalayout = "e-m:e-p270:32:32-p271:32:32-p272:64:64-i64:64-f80:128-n8:16:32:64-S128"
target triple = "x86_64-pc-linux-gnu"

@.str = private unnamed_addr constant [3 x i8] c"%d\00", align 1
@.str.1 = private unnamed_addr constant [3 x i8] c"%s\00", align 1

; Function Attrs: nofree nounwind sspstrong uwtable
define dso_local void @main() local_unnamed_addr #0 {
  %1 = alloca [51 x i8], align 16
  %2 = alloca [51 x [51 x i8]], align 16
  %3 = alloca i32, align 4
  %4 = getelementptr inbounds [51 x i8], [51 x i8]* %1, i64 0, i64 0
  call void @llvm.lifetime.start.p0i8(i64 51, i8* nonnull %4) #7
  call void @llvm.memset.p0i8.i64(i8* noundef nonnull align 16 dereferenceable(51) %4, i8 0, i64 51, i1 false)
  %5 = getelementptr inbounds [51 x [51 x i8]], [51 x [51 x i8]]* %2, i64 0, i64 0, i64 0
  call void @llvm.lifetime.start.p0i8(i64 2601, i8* nonnull %5) #7
  call void @llvm.memset.p0i8.i64(i8* noundef nonnull align 16 dereferenceable(2601) %5, i8 0, i64 2601, i1 false)
  %6 = bitcast i32* %3 to i8*
  call void @llvm.lifetime.start.p0i8(i64 4, i8* nonnull %6) #7
  store i32 0, i32* %3, align 4, !tbaa !5
  %7 = call i32 (i8*, ...) @__isoc99_scanf(i8* getelementptr inbounds ([3 x i8], [3 x i8]* @.str, i64 0, i64 0), i32* nonnull %3)
  %8 = load i32, i32* %3, align 4, !tbaa !5
  %9 = icmp sgt i32 %8, 0
  br i1 %9, label %12, label %44

10:                                               ; preds = %29
  %11 = icmp sgt i32 %33, 0
  br i1 %11, label %36, label %44

12:                                               ; preds = %0, %29
  %13 = phi i64 [ %32, %29 ], [ 0, %0 ]
  %14 = call i32 (i8*, ...) @__isoc99_scanf(i8* getelementptr inbounds ([3 x i8], [3 x i8]* @.str.1, i64 0, i64 0), i8* nonnull %4)
  %15 = call i64 @strlen(i8* noundef nonnull %4) #8
  %16 = shl i64 %15, 32
  %17 = add i64 %16, -4294967296
  %18 = ashr exact i64 %17, 32
  %19 = getelementptr inbounds [51 x i8], [51 x i8]* %1, i64 0, i64 %18
  %20 = load i8, i8* %19, align 1, !tbaa !9
  %21 = icmp eq i8 %20, 103
  %22 = add i64 %16, -8589934592
  %23 = ashr exact i64 %22, 32
  %24 = getelementptr inbounds [51 x i8], [51 x i8]* %1, i64 0, i64 %23
  store i8 0, i8* %24, align 1, !tbaa !9
  store i8 0, i8* %19, align 1, !tbaa !9
  br i1 %21, label %25, label %29

25:                                               ; preds = %12
  %26 = add i64 %16, -12884901888
  %27 = ashr exact i64 %26, 32
  %28 = getelementptr inbounds [51 x i8], [51 x i8]* %1, i64 0, i64 %27
  store i8 0, i8* %28, align 1, !tbaa !9
  br label %29

29:                                               ; preds = %12, %25
  %30 = getelementptr inbounds [51 x [51 x i8]], [51 x [51 x i8]]* %2, i64 0, i64 %13, i64 0
  %31 = call i8* @strcpy(i8* noundef nonnull %30, i8* noundef nonnull %4) #7
  %32 = add nuw nsw i64 %13, 1
  %33 = load i32, i32* %3, align 4, !tbaa !5
  %34 = sext i32 %33 to i64
  %35 = icmp slt i64 %32, %34
  br i1 %35, label %12, label %10, !llvm.loop !10

36:                                               ; preds = %10, %36
  %37 = phi i64 [ %40, %36 ], [ 0, %10 ]
  %38 = getelementptr inbounds [51 x [51 x i8]], [51 x [51 x i8]]* %2, i64 0, i64 %37, i64 0
  %39 = call i32 @puts(i8* nonnull %38)
  %40 = add nuw nsw i64 %37, 1
  %41 = load i32, i32* %3, align 4, !tbaa !5
  %42 = sext i32 %41 to i64
  %43 = icmp slt i64 %40, %42
  br i1 %43, label %36, label %44, !llvm.loop !12

44:                                               ; preds = %36, %0, %10
  call void @llvm.lifetime.end.p0i8(i64 4, i8* nonnull %6) #7
  call void @llvm.lifetime.end.p0i8(i64 2601, i8* nonnull %5) #7
  call void @llvm.lifetime.end.p0i8(i64 51, i8* nonnull %4) #7
  ret void
}

; Function Attrs: argmemonly mustprogress nofree nosync nounwind willreturn
declare void @llvm.lifetime.start.p0i8(i64 immarg, i8* nocapture) #1

; Function Attrs: argmemonly mustprogress nofree nounwind willreturn writeonly
declare void @llvm.memset.p0i8.i64(i8* nocapture writeonly, i8, i64, i1 immarg) #2

; Function Attrs: nofree nounwind
declare noundef i32 @__isoc99_scanf(i8* nocapture noundef readonly, ...) local_unnamed_addr #3

; Function Attrs: argmemonly mustprogress nofree nounwind readonly willreturn
declare i64 @strlen(i8* nocapture) local_unnamed_addr #4

; Function Attrs: argmemonly mustprogress nofree nounwind willreturn
declare i8* @strcpy(i8* noalias returned writeonly, i8* noalias nocapture readonly) local_unnamed_addr #5

; Function Attrs: argmemonly mustprogress nofree nosync nounwind willreturn
declare void @llvm.lifetime.end.p0i8(i64 immarg, i8* nocapture) #1

; Function Attrs: nofree nounwind
declare noundef i32 @puts(i8* nocapture noundef readonly) local_unnamed_addr #6


!llvm.module.flags = !{!0, !1, !2, !3}
!llvm.ident = !{!4}

!0 = !{i32 1, !"wchar_size", i32 4}
!1 = !{i32 7, !"PIC Level", i32 2}
!2 = !{i32 7, !"PIE Level", i32 2}
!3 = !{i32 7, !"uwtable", i32 1}
!4 = !{!"clang version 13.0.0"}
!5 = !{!6, !6, i64 0}
!6 = !{!"int", !7, i64 0}
!7 = !{!"omnipotent char", !8, i64 0}
!8 = !{!"Simple C/C++ TBAA"}
!9 = !{!7, !7, i64 0}
!10 = distinct !{!10, !11}
!11 = !{!"llvm.loop.mustprogress"}
!12 = distinct !{!12, !11}
